# SymbolsHelper-Confirmed: 4:4.13.1 amd64
libkdegamesprivate.so.1abi1 libkdegamesprivate1abi1 #MINVER#
 ABI_1_1@ABI_1_1 4:4.11.1
 _ZN10KGameKeyIO11eventFilterEP7QObjectP6QEvent@ABI_1_1 4:4.11.1
 _ZN10KGameKeyIO11qt_metacallEN11QMetaObject4CallEiPPv@ABI_1_1 4:4.11.1
 _ZN10KGameKeyIO11qt_metacastEPKc@ABI_1_1 4:4.11.1
 _ZN10KGameKeyIO14signalKeyEventEP7KGameIOR11QDataStreamP9QKeyEventPb@ABI_1_1 4:4.11.1
 _ZN10KGameKeyIO16staticMetaObjectE@ABI_1_1 4:4.11.1
 _ZN10KGameKeyIOC1EP7QWidget@ABI_1_1 4:4.11.1
 _ZN10KGameKeyIOC2EP7QWidget@ABI_1_1 4:4.11.1
 _ZN10KGameKeyIOD0Ev@ABI_1_1 4:4.11.1
 _ZN10KGameKeyIOD1Ev@ABI_1_1 4:4.11.1
 _ZN10KGameKeyIOD2Ev@ABI_1_1 4:4.11.1
 _ZN10KGameTheme11loadDefaultEv@ABI_1_1 4:4.11.1
 _ZN10KGameTheme4loadERK7QString@ABI_1_1 4:4.11.1
 _ZN10KGameThemeC1ERK7QString@ABI_1_1 4:4.11.1
 _ZN10KGameThemeC2ERK7QString@ABI_1_1 4:4.11.1
 _ZN10KGameThemeD0Ev@ABI_1_1 4:4.11.1
 _ZN10KGameThemeD1Ev@ABI_1_1 4:4.11.1
 _ZN10KGameThemeD2Ev@ABI_1_1 4:4.11.1
 _ZN10KMessageIO11qt_metacallEN11QMetaObject4CallEiPPv@ABI_1_1 4:4.11.1
 _ZN10KMessageIO11qt_metacastEPKc@ABI_1_1 4:4.11.1
 _ZN10KMessageIO16connectionBrokenEv@ABI_1_1 4:4.11.1
 _ZN10KMessageIO16staticMetaObjectE@ABI_1_1 4:4.11.1
 _ZN10KMessageIO2idEv@ABI_1_1 4:4.11.1
 _ZN10KMessageIO5setIdEj@ABI_1_1 4:4.11.1
 _ZN10KMessageIO8receivedERK10QByteArray@ABI_1_1 4:4.11.1
 _ZN10KMessageIOC1EP7QObject@ABI_1_1 4:4.11.1
 _ZN10KMessageIOC2EP7QObject@ABI_1_1 4:4.11.1
 _ZN10KMessageIOD0Ev@ABI_1_1 4:4.11.1
 _ZN10KMessageIOD1Ev@ABI_1_1 4:4.11.1
 _ZN10KMessageIOD2Ev@ABI_1_1 4:4.11.1
 _ZN12KGameMessage11rawPlayerIdEj@ABI_1_1 4:4.11.1
 _ZN12KGameMessage12createHeaderER11QDataStreamjji@ABI_1_1 4:4.11.1
 _ZN12KGameMessage13extractHeaderER11QDataStreamRjS2_Ri@ABI_1_1 4:4.11.1
 _ZN12KGameMessage14createPlayerIdEij@ABI_1_1 4:4.11.1
 _ZN12KGameMessage14messageId2TextEi@ABI_1_1 4:4.11.1
 _ZN12KGameMessage20createPropertyHeaderER11QDataStreami@ABI_1_1 4:4.11.1
 _ZN12KGameMessage21createPropertyCommandER11QDataStreamiii@ABI_1_1 4:4.11.1
 _ZN12KGameMessage21extractPropertyHeaderER11QDataStreamRi@ABI_1_1 4:4.11.1
 _ZN12KGameMessage22extractPropertyCommandER11QDataStreamRiS2_@ABI_1_1 4:4.11.1
 _ZN12KGameMessage6isGameEj@ABI_1_1 4:4.11.1
 _ZN12KGameMessage7versionEv@ABI_1_1 4:4.11.1
 _ZN12KGameMessage8isPlayerEj@ABI_1_1 4:4.11.1
 _ZN12KGameMessage9rawGameIdEj@ABI_1_1 4:4.11.1
 _ZN12KGameMouseIO11eventFilterEP7QObjectP6QEvent@ABI_1_1 4:4.11.1
 _ZN12KGameMouseIO11qt_metacallEN11QMetaObject4CallEiPPv@ABI_1_1 4:4.11.1
 _ZN12KGameMouseIO11qt_metacastEPKc@ABI_1_1 4:4.11.1
 _ZN12KGameMouseIO16setMouseTrackingEb@ABI_1_1 4:4.11.1
 _ZN12KGameMouseIO16signalMouseEventEP7KGameIOR11QDataStreamP11QMouseEventPb@ABI_1_1 4:4.11.1
 _ZN12KGameMouseIO16staticMetaObjectE@ABI_1_1 4:4.11.1
 _ZN12KGameMouseIOC1EP14QGraphicsSceneb@ABI_1_1 4:4.11.1
 _ZN12KGameMouseIOC1EP7QWidgetb@ABI_1_1 4:4.11.1
 _ZN12KGameMouseIOC2EP14QGraphicsSceneb@ABI_1_1 4:4.11.1
 _ZN12KGameMouseIOC2EP7QWidgetb@ABI_1_1 4:4.11.1
 _ZN12KGameMouseIOD0Ev@ABI_1_1 4:4.11.1
 _ZN12KGameMouseIOD1Ev@ABI_1_1 4:4.11.1
 _ZN12KGameMouseIOD2Ev@ABI_1_1 4:4.11.1
 _ZN12KGameNetwork10disconnectEv@ABI_1_1 4:4.11.1
 _ZN12KGameNetwork10electAdminEj@ABI_1_1 4:4.11.1
 _ZN12KGameNetwork10tryPublishEv@ABI_1_1 4:4.11.1
 _ZN12KGameNetwork11qt_metacallEN11QMetaObject4CallEiPPv@ABI_1_1 4:4.11.1
 _ZN12KGameNetwork11qt_metacastEPKc@ABI_1_1 4:4.11.1
 _ZN12KGameNetwork11sendMessageERK10QByteArrayijj@ABI_1_1 4:4.11.1
 _ZN12KGameNetwork11sendMessageERK11QDataStreamijj@ABI_1_1 4:4.11.1
 _ZN12KGameNetwork11sendMessageERK7QStringijj@ABI_1_1 4:4.11.1
 _ZN12KGameNetwork11sendMessageEiijj@ABI_1_1 4:4.11.1
 _ZN12KGameNetwork13setMaxClientsEi@ABI_1_1 4:4.11.1
 _ZN12KGameNetwork15connectToServerEP10KMessageIO@ABI_1_1 4:4.11.1
 _ZN12KGameNetwork15connectToServerERK7QStringt@ABI_1_1 4:4.11.1
 _ZN12KGameNetwork16offerConnectionsEt@ABI_1_1 4:4.11.1
 _ZN12KGameNetwork16setDiscoveryInfoERK7QStringS2_@ABI_1_1 4:4.11.1
 _ZN12KGameNetwork16staticMetaObjectE@ABI_1_1 4:4.11.1
 _ZN12KGameNetwork17sendSystemMessageERK10QByteArrayijj@ABI_1_1 4:4.11.1
 _ZN12KGameNetwork17sendSystemMessageERK11QDataStreamijj@ABI_1_1 4:4.11.1
 _ZN12KGameNetwork17sendSystemMessageERK7QStringijj@ABI_1_1 4:4.11.1
 _ZN12KGameNetwork17sendSystemMessageEiijj@ABI_1_1 4:4.11.1
 _ZN12KGameNetwork17tryStopPublishingEv@ABI_1_1 4:4.11.1
 _ZN12KGameNetwork19slotResetConnectionEv@ABI_1_1 4:4.11.1
 _ZN12KGameNetwork20stopServerConnectionEv@ABI_1_1 4:4.11.1
 _ZN12KGameNetwork21aboutToLoseConnectionEj@ABI_1_1 4:4.11.1
 _ZN12KGameNetwork21signalClientConnectedEj@ABI_1_1 4:4.11.1
 _ZN12KGameNetwork22signalConnectionBrokenEv@ABI_1_1 4:4.11.1
 _ZN12KGameNetwork22slotAdminStatusChangedEb@ABI_1_1 4:4.11.1
 _ZN12KGameNetwork24signalAdminStatusChangedEb@ABI_1_1 4:4.11.1
 _ZN12KGameNetwork24signalClientDisconnectedEjb@ABI_1_1 4:4.11.1
 _ZN12KGameNetwork25signalNetworkErrorMessageEi7QString@ABI_1_1 4:4.11.1
 _ZN12KGameNetwork26receiveNetworkTransmissionERK10QByteArrayj@ABI_1_1 4:4.11.1
 _ZN12KGameNetwork4lockEv@ABI_1_1 4:4.11.1
 _ZN12KGameNetwork5DebugEv@ABI_1_1 4:4.11.1
 _ZN12KGameNetwork6unlockEv@ABI_1_1 4:4.11.1
 _ZN12KGameNetwork9sendErrorEiRK10QByteArrayjj@ABI_1_1 4:4.11.1
 _ZN12KGameNetwork9setMasterEv@ABI_1_1 4:4.11.1
 _ZN12KGameNetworkC1EiP7QObject@ABI_1_1 4:4.11.1
 _ZN12KGameNetworkC2EiP7QObject@ABI_1_1 4:4.11.1
 _ZN12KGameNetworkD0Ev@ABI_1_1 4:4.11.1
 _ZN12KGameNetworkD1Ev@ABI_1_1 4:4.11.1
 _ZN12KGameNetworkD2Ev@ABI_1_1 4:4.11.1
 _ZN13KGameSequence10nextPlayerEP7KPlayerb@ABI_1_1 4:4.11.1
 _ZN13KGameSequence11qt_metacallEN11QMetaObject4CallEiPPv@ABI_1_1 4:4.11.1
 _ZN13KGameSequence11qt_metacastEPKc@ABI_1_1 4:4.11.1
 _ZN13KGameSequence13checkGameOverEP7KPlayer@ABI_1_1 4:4.11.1
 _ZN13KGameSequence16setCurrentPlayerEP7KPlayer@ABI_1_1 4:4.11.1
 _ZN13KGameSequence16staticMetaObjectE@ABI_1_1 4:4.11.1
 _ZN13KGameSequence7setGameEP5KGame@ABI_1_1 4:4.11.1
 _ZN13KGameSequenceC1Ev@ABI_1_1 4:4.11.1
 _ZN13KGameSequenceC2Ev@ABI_1_1 4:4.11.1
 _ZN13KGameSequenceD0Ev@ABI_1_1 4:4.11.1
 _ZN13KGameSequenceD1Ev@ABI_1_1 4:4.11.1
 _ZN13KGameSequenceD2Ev@ABI_1_1 4:4.11.1
 _ZN14KChatBaseModel10addMessageERK7QStringS2_@ABI_1_1 4:4.11.1
 _ZN14KChatBaseModel10readConfigEP7KConfig@ABI_1_1 4:4.11.1
 _ZN14KChatBaseModel10saveConfigEP7KConfig@ABI_1_1 4:4.11.1
 _ZN14KChatBaseModel11qt_metacallEN11QMetaObject4CallEiPPv@ABI_1_1 4:4.11.1
 _ZN14KChatBaseModel11qt_metacastEPKc@ABI_1_1 4:4.11.1
 _ZN14KChatBaseModel11setBothFontERK5QFont@ABI_1_1 4:4.11.1
 _ZN14KChatBaseModel11setMaxItemsEi@ABI_1_1 4:4.11.1
 _ZN14KChatBaseModel11setNameFontERK5QFont@ABI_1_1 4:4.11.1
 _ZN14KChatBaseModel14setMessageFontERK5QFont@ABI_1_1 4:4.11.1
 _ZN14KChatBaseModel16addSystemMessageERK7QStringS2_@ABI_1_1 4:4.11.1
 _ZN14KChatBaseModel16staticMetaObjectE@ABI_1_1 4:4.11.1
 _ZN14KChatBaseModel17setSystemBothFontERK5QFont@ABI_1_1 4:4.11.1
 _ZN14KChatBaseModel17setSystemNameFontERK5QFont@ABI_1_1 4:4.11.1
 _ZN14KChatBaseModel20setSystemMessageFontERK5QFont@ABI_1_1 4:4.11.1
 _ZN14KChatBaseModel5clearEv@ABI_1_1 4:4.11.1
 _ZN14KChatBaseModel9slotClearEv@ABI_1_1 4:4.11.1
 _ZN14KChatBaseModelC1EP7QObject@ABI_1_1 4:4.11.1
 _ZN14KChatBaseModelC2EP7QObject@ABI_1_1 4:4.11.1
 _ZN14KChatBaseModelD0Ev@ABI_1_1 4:4.11.1
 _ZN14KChatBaseModelD1Ev@ABI_1_1 4:4.11.1
 _ZN14KChatBaseModelD2Ev@ABI_1_1 4:4.11.1
 _ZN14KGameProcessIO10notifyTurnEb@ABI_1_1 4:4.11.1
 _ZN14KGameProcessIO11qt_metacallEN11QMetaObject4CallEiPPv@ABI_1_1 4:4.11.1
 _ZN14KGameProcessIO11qt_metacastEPKc@ABI_1_1 4:4.11.1
 _ZN14KGameProcessIO11sendMessageER11QDataStreamijj@ABI_1_1 4:4.11.1
 _ZN14KGameProcessIO13signalIOAddedEP7KGameIOR11QDataStreamP7KPlayerPb@ABI_1_1 4:4.11.1
 _ZN14KGameProcessIO15receivedMessageERK10QByteArray@ABI_1_1 4:4.11.1
 _ZN14KGameProcessIO15sendAllMessagesER11QDataStreamijjb@ABI_1_1 4:4.11.1
 _ZN14KGameProcessIO16staticMetaObjectE@ABI_1_1 4:4.11.1
 _ZN14KGameProcessIO17sendSystemMessageER11QDataStreamijj@ABI_1_1 4:4.11.1
 _ZN14KGameProcessIO18signalProcessQueryER11QDataStreamPS_@ABI_1_1 4:4.11.1
 _ZN14KGameProcessIO20signalReceivedStderrE7QString@ABI_1_1 4:4.11.1
 _ZN14KGameProcessIO6initIOEP7KPlayer@ABI_1_1 4:4.11.1
 _ZN14KGameProcessIOC1ERK7QString@ABI_1_1 4:4.11.1
 _ZN14KGameProcessIOC2ERK7QString@ABI_1_1 4:4.11.1
 _ZN14KGameProcessIOD0Ev@ABI_1_1 4:4.11.1
 _ZN14KGameProcessIOD1Ev@ABI_1_1 4:4.11.1
 _ZN14KGameProcessIOD2Ev@ABI_1_1 4:4.11.1
 _ZN14KMessageClient10disconnectEv@ABI_1_1 4:4.11.1
 _ZN14KMessageClient11qt_metacallEN11QMetaObject4CallEiPPv@ABI_1_1 4:4.11.1
 _ZN14KMessageClient11qt_metacastEPKc@ABI_1_1 4:4.11.1
 _ZN14KMessageClient11sendForwardERK10QByteArrayRK5QListIjE@ABI_1_1 4:4.11.1
 _ZN14KMessageClient11sendForwardERK10QByteArrayj@ABI_1_1 4:4.11.1
 _ZN14KMessageClient13sendBroadcastERK10QByteArray@ABI_1_1 4:4.11.1
 _ZN14KMessageClient14processMessageERK10QByteArray@ABI_1_1 4:4.11.1
 _ZN14KMessageClient15forwardReceivedERK10QByteArrayjRK5QListIjE@ABI_1_1 4:4.11.1
 _ZN14KMessageClient16connectionBrokenEv@ABI_1_1 4:4.11.1
 _ZN14KMessageClient16staticMetaObjectE@ABI_1_1 4:4.11.1
 _ZN14KMessageClient17aboutToDisconnectEj@ABI_1_1 4:4.11.1
 _ZN14KMessageClient17broadcastReceivedERK10QByteArrayj@ABI_1_1 4:4.11.1
 _ZN14KMessageClient17sendServerMessageERK10QByteArray@ABI_1_1 4:4.11.1
 _ZN14KMessageClient18adminStatusChangedEb@ABI_1_1 4:4.11.1
 _ZN14KMessageClient19processFirstMessageEv@ABI_1_1 4:4.11.1
 _ZN14KMessageClient20eventClientConnectedEj@ABI_1_1 4:4.11.1
 _ZN14KMessageClient21serverMessageReceivedERK10QByteArrayRb@ABI_1_1 4:4.11.1
 _ZN14KMessageClient22processIncomingMessageERK10QByteArray@ABI_1_1 4:4.11.1
 _ZN14KMessageClient22removeBrokenConnectionEv@ABI_1_1 4:4.11.1
 _ZN14KMessageClient23eventClientDisconnectedEjb@ABI_1_1 4:4.11.1
 _ZN14KMessageClient23removeBrokenConnection2Ev@ABI_1_1 4:4.11.1
 _ZN14KMessageClient4lockEv@ABI_1_1 4:4.11.1
 _ZN14KMessageClient6unlockEv@ABI_1_1 4:4.11.1
 _ZN14KMessageClient9setServerEP10KMessageIO@ABI_1_1 4:4.11.1
 _ZN14KMessageClient9setServerEP14KMessageServer@ABI_1_1 4:4.11.1
 _ZN14KMessageClient9setServerERK7QStringt@ABI_1_1 4:4.11.1
 _ZN14KMessageClientC1EP7QObject@ABI_1_1 4:4.11.1
 _ZN14KMessageClientC2EP7QObject@ABI_1_1 4:4.11.1
 _ZN14KMessageClientD0Ev@ABI_1_1 4:4.11.1
 _ZN14KMessageClientD1Ev@ABI_1_1 4:4.11.1
 _ZN14KMessageClientD2Ev@ABI_1_1 4:4.11.1
 _ZN14KMessageServer11initNetworkEt@ABI_1_1 4:4.11.1
 _ZN14KMessageServer11qt_metacallEN11QMetaObject4CallEiPPv@ABI_1_1 4:4.11.1
 _ZN14KMessageServer11qt_metacastEPKc@ABI_1_1 4:4.11.1
 _ZN14KMessageServer11sendMessageERK5QListIjERK10QByteArray@ABI_1_1 4:4.11.1
 _ZN14KMessageServer11sendMessageEjRK10QByteArray@ABI_1_1 4:4.11.1
 _ZN14KMessageServer11stopNetworkEv@ABI_1_1 4:4.11.1
 _ZN14KMessageServer12removeClientEP10KMessageIOb@ABI_1_1 4:4.11.1
 _ZN14KMessageServer13deleteClientsEv@ABI_1_1 4:4.11.1
 _ZN14KMessageServer13setMaxClientsEi@ABI_1_1 4:4.11.1
 _ZN14KMessageServer14connectionLostEP10KMessageIO@ABI_1_1 4:4.11.1
 _ZN14KMessageServer15clientConnectedEP10KMessageIO@ABI_1_1 4:4.11.1
 _ZN14KMessageServer15messageReceivedERK10QByteArrayjRb@ABI_1_1 4:4.11.1
 _ZN14KMessageServer16broadcastMessageERK10QByteArray@ABI_1_1 4:4.11.1
 _ZN14KMessageServer16staticMetaObjectE@ABI_1_1 4:4.11.1
 _ZN14KMessageServer17processOneMessageEv@ABI_1_1 4:4.11.1
 _ZN14KMessageServer18getReceivedMessageERK10QByteArray@ABI_1_1 4:4.11.1
 _ZN14KMessageServer18removeBrokenClientEv@ABI_1_1 4:4.11.1
 _ZN14KMessageServer5DebugEv@ABI_1_1 4:4.11.1
 _ZN14KMessageServer8setAdminEj@ABI_1_1 4:4.11.1
 _ZN14KMessageServer9addClientEP10KMessageIO@ABI_1_1 4:4.11.1
 _ZN14KMessageServerC1EtP7QObject@ABI_1_1 4:4.11.1
 _ZN14KMessageServerC2EtP7QObject@ABI_1_1 4:4.11.1
 _ZN14KMessageServerD0Ev@ABI_1_1 4:4.11.1
 _ZN14KMessageServerD1Ev@ABI_1_1 4:4.11.1
 _ZN14KMessageServerD2Ev@ABI_1_1 4:4.11.1
 _ZN15KGameCanvasItem10setOpacityEi@ABI_1_1 4:4.11.1
 _ZN15KGameCanvasItem10setVisibleEb@ABI_1_1 4:4.11.1
 _ZN15KGameCanvasItem10stackUnderEPS_@ABI_1_1 4:4.11.1
 _ZN15KGameCanvasItem11putInCanvasEP19KGameCanvasAbstract@ABI_1_1 4:4.11.1
 _ZN15KGameCanvasItem11setAnimatedEb@ABI_1_1 4:4.11.1
 _ZN15KGameCanvasItem13paintInternalEP8QPainterRK5QRectRK7QRegionRK6QPointd@ABI_1_1 4:4.11.1
 _ZN15KGameCanvasItem13updateChangesEv@ABI_1_1 4:4.11.1
 _ZN15KGameCanvasItem18updateAfterRestackEii@ABI_1_1 4:4.11.1
 _ZN15KGameCanvasItem20getTransparenceCacheERK5QSize@ABI_1_1 4:4.11.1
 _ZN15KGameCanvasItem25transparence_pixmap_cacheE@ABI_1_1 4:4.11.1
 _ZN15KGameCanvasItem5lowerEv@ABI_1_1 4:4.11.1
 _ZN15KGameCanvasItem5raiseEv@ABI_1_1 4:4.11.1
 _ZN15KGameCanvasItem6moveToERK6QPoint@ABI_1_1 4:4.11.1
 _ZN15KGameCanvasItem7advanceEi@ABI_1_1 4:4.11.1
 _ZN15KGameCanvasItem7changedEv@ABI_1_1 4:4.11.1
 _ZN15KGameCanvasItem9stackOverEPS_@ABI_1_1 4:4.11.1
 _ZN15KGameCanvasItemC1EP19KGameCanvasAbstract@ABI_1_1 4:4.11.1
 _ZN15KGameCanvasItemC2EP19KGameCanvasAbstract@ABI_1_1 4:4.11.1
 _ZN15KGameCanvasItemD0Ev@ABI_1_1 4:4.11.1
 _ZN15KGameCanvasItemD1Ev@ABI_1_1 4:4.11.1
 _ZN15KGameCanvasItemD2Ev@ABI_1_1 4:4.11.1
 _ZN15KGameCanvasText14setPositioningENS_4HPosENS_4VPosE@ABI_1_1 4:4.11.1
 _ZN15KGameCanvasText16calcBoundingRectEv@ABI_1_1 4:4.11.1
 _ZN15KGameCanvasText5paintEP8QPainter@ABI_1_1 4:4.11.1
 _ZN15KGameCanvasText7setFontERK5QFont@ABI_1_1 4:4.11.1
 _ZN15KGameCanvasText7setTextERK7QString@ABI_1_1 4:4.11.1
 _ZN15KGameCanvasText8setColorERK6QColor@ABI_1_1 4:4.11.1
 _ZN15KGameCanvasTextC1EP19KGameCanvasAbstract@ABI_1_1 4:4.11.1
 _ZN15KGameCanvasTextC1ERK7QStringRK6QColorRK5QFontNS_4HPosENS_4VPosEP19KGameCanvasAbstract@ABI_1_1 4:4.11.1
 _ZN15KGameCanvasTextC2EP19KGameCanvasAbstract@ABI_1_1 4:4.11.1
 _ZN15KGameCanvasTextC2ERK7QStringRK6QColorRK5QFontNS_4HPosENS_4VPosEP19KGameCanvasAbstract@ABI_1_1 4:4.11.1
 _ZN15KGameCanvasTextD0Ev@ABI_1_1 4:4.11.1
 _ZN15KGameCanvasTextD1Ev@ABI_1_1 4:4.11.1
 _ZN15KGameCanvasTextD2Ev@ABI_1_1 4:4.11.1
 _ZN15KGameComputerIO11qt_metacallEN11QMetaObject4CallEiPPv@ABI_1_1 4:4.11.1
 _ZN15KGameComputerIO11qt_metacastEPKc@ABI_1_1 4:4.11.1
 _ZN15KGameComputerIO14signalReactionEv@ABI_1_1 4:4.11.1
 _ZN15KGameComputerIO16setAdvancePeriodEi@ABI_1_1 4:4.11.1
 _ZN15KGameComputerIO16staticMetaObjectE@ABI_1_1 4:4.11.1
 _ZN15KGameComputerIO17setReactionPeriodEi@ABI_1_1 4:4.11.1
 _ZN15KGameComputerIO17stopAdvancePeriodEv@ABI_1_1 4:4.11.1
 _ZN15KGameComputerIO5pauseEi@ABI_1_1 4:4.11.1
 _ZN15KGameComputerIO7advanceEv@ABI_1_1 4:4.11.1
 _ZN15KGameComputerIO7unpauseEv@ABI_1_1 4:4.11.1
 _ZN15KGameComputerIO8reactionEv@ABI_1_1 4:4.11.1
 _ZN15KGameComputerIOC1EP7KPlayer@ABI_1_1 4:4.11.1
 _ZN15KGameComputerIOC1Ev@ABI_1_1 4:4.11.1
 _ZN15KGameComputerIOC2EP7KPlayer@ABI_1_1 4:4.11.1
 _ZN15KGameComputerIOC2Ev@ABI_1_1 4:4.11.1
 _ZN15KGameComputerIOD0Ev@ABI_1_1 4:4.11.1
 _ZN15KGameComputerIOD1Ev@ABI_1_1 4:4.11.1
 _ZN15KGameComputerIOD2Ev@ABI_1_1 4:4.11.1
 _ZN15KGameDifficulty10setEnabledEb@ABI_1_1 4:4.11.1
 _ZN15KGameDifficulty10setRunningEb@ABI_1_1 4:4.11.1
 _ZN15KGameDifficulty11levelCustomEv@ABI_1_1 4:4.11.1
 _ZN15KGameDifficulty11levelStringEv@ABI_1_1 4:4.11.1
 _ZN15KGameDifficulty12levelWeightsEv@ABI_1_1 4:4.11.1
 _ZN15KGameDifficulty14addCustomLevelEiRK7QString@ABI_1_1 4:4.11.1
 _ZN15KGameDifficulty14setLevelCustomEi@ABI_1_1 4:4.11.1
 _ZN15KGameDifficulty16addStandardLevelENS_13standardLevelE@ABI_1_1 4:4.11.1
 _ZN15KGameDifficulty17removeCustomLevelEi@ABI_1_1 4:4.11.1
 _ZN15KGameDifficulty18setRestartOnChangeENS_8onChangeE@ABI_1_1 4:4.11.1
 _ZN15KGameDifficulty19removeStandardLevelENS_13standardLevelE@ABI_1_1 4:4.11.1
 _ZN15KGameDifficulty20localizedLevelStringEv@ABI_1_1 4:4.11.1
 _ZN15KGameDifficulty21localizedLevelStringsEv@ABI_1_1 4:4.11.1
 _ZN15KGameDifficulty4initEP13KXmlGuiWindowPK7QObjectPKcS6_@ABI_1_1 4:4.11.1
 _ZN15KGameDifficulty4selfEv@ABI_1_1 4:4.11.1
 _ZN15KGameDifficulty5levelEv@ABI_1_1 4:4.11.1
 _ZN15KGameDifficulty8instanceE@ABI_1_1 4:4.11.1
 _ZN15KGameDifficulty8setLevelENS_13standardLevelE@ABI_1_1 4:4.11.1
 _ZN15KGameDifficultyC1Ev@ABI_1_1 4:4.11.1
 _ZN15KGameDifficultyC2Ev@ABI_1_1 4:4.11.1
 _ZN15KGameDifficultyD0Ev@ABI_1_1 4:4.11.1
 _ZN15KGameDifficultyD1Ev@ABI_1_1 4:4.11.1
 _ZN15KGameDifficultyD2Ev@ABI_1_1 4:4.11.1
 _ZN16KChatBaseMessageC1ERK7QStringS2_NS_11MessageTypeE@ABI_1_1 4:4.11.1
 _ZN16KChatBaseMessageC1ERKS_@ABI_1_1 4:4.11.1
 _ZN16KChatBaseMessageC1Ev@ABI_1_1 4:4.11.1
 _ZN16KChatBaseMessageC2ERK7QStringS2_NS_11MessageTypeE@ABI_1_1 4:4.11.1
 _ZN16KChatBaseMessageC2ERKS_@ABI_1_1 4:4.11.1
 _ZN16KChatBaseMessageC2Ev@ABI_1_1 4:4.11.1
 _ZN16KChatBaseMessageD0Ev@ABI_1_1 4:4.11.1
 _ZN16KChatBaseMessageD1Ev@ABI_1_1 4:4.11.1
 _ZN16KChatBaseMessageD2Ev@ABI_1_1 4:4.11.1
 _ZN16KGameCanvasDummy5paintEP8QPainter@ABI_1_1 4:4.11.1
 _ZN16KGameCanvasDummyC1EP19KGameCanvasAbstract@ABI_1_1 4:4.11.1
 _ZN16KGameCanvasDummyC2EP19KGameCanvasAbstract@ABI_1_1 4:4.11.1
 _ZN16KGameCanvasDummyD0Ev@ABI_1_1 4:4.11.1
 _ZN16KGameCanvasDummyD1Ev@ABI_1_1 4:4.11.1
 _ZN16KGameCanvasDummyD2Ev@ABI_1_1 4:4.11.1
 _ZN16KGameCanvasGroup10invalidateERK5QRectb@ABI_1_1 4:4.11.1
 _ZN16KGameCanvasGroup10invalidateERK7QRegionb@ABI_1_1 4:4.11.1
 _ZN16KGameCanvasGroup13paintInternalEP8QPainterRK5QRectRK7QRegionRK6QPointd@ABI_1_1 4:4.11.1
 _ZN16KGameCanvasGroup13updateChangesEv@ABI_1_1 4:4.11.1
 _ZN16KGameCanvasGroup14topLevelCanvasEv@ABI_1_1 4:4.11.1
 _ZN16KGameCanvasGroup15ensureAnimatingEv@ABI_1_1 4:4.11.1
 _ZN16KGameCanvasGroup19ensurePendingUpdateEv@ABI_1_1 4:4.11.1
 _ZN16KGameCanvasGroup5paintEP8QPainter@ABI_1_1 4:4.11.1
 _ZN16KGameCanvasGroup7advanceEi@ABI_1_1 4:4.11.1
 _ZN16KGameCanvasGroup7changedEv@ABI_1_1 4:4.11.1
 _ZN16KGameCanvasGroupC1EP19KGameCanvasAbstract@ABI_1_1 4:4.11.1
 _ZN16KGameCanvasGroupC2EP19KGameCanvasAbstract@ABI_1_1 4:4.11.1
 _ZN16KGameCanvasGroupD0Ev@ABI_1_1 4:4.11.1
 _ZN16KGameCanvasGroupD1Ev@ABI_1_1 4:4.11.1
 _ZN16KGameCanvasGroupD2Ev@ABI_1_1 4:4.11.1
 _ZN16KGameSvgDocument11elementByIdERK7QString@ABI_1_1 4:4.11.1
 _ZN16KGameSvgDocument12setTransformERK7QString@ABI_1_1 4:4.11.1
 _ZN16KGameSvgDocument14setCurrentNodeERK8QDomNode@ABI_1_1 4:4.11.1
 _ZN16KGameSvgDocument14setSvgFilenameERK7QString@ABI_1_1 4:4.11.1
 _ZN16KGameSvgDocument16setStylePropertyERK7QStringS2_@ABI_1_1 4:4.11.1
 _ZN16KGameSvgDocument18setStylePropertiesERK5QHashI7QStringS1_ERK6QFlagsINS_23StylePropertySortOptionEE@ABI_1_1 4:4.11.1
 _ZN16KGameSvgDocument18setTransformMatrixER7QMatrixRK6QFlagsINS_12MatrixOptionEE@ABI_1_1 4:4.11.1
 _ZN16KGameSvgDocument29elementByUniqueAttributeValueERK7QStringS2_@ABI_1_1 4:4.11.1
 _ZN16KGameSvgDocument4loadERK7QString@ABI_1_1 4:4.11.1
 _ZN16KGameSvgDocument4loadEv@ABI_1_1 4:4.11.1
 _ZN16KGameSvgDocument4skewEddRK6QFlagsINS_12MatrixOptionEE@ABI_1_1 4:4.11.1
 _ZN16KGameSvgDocument5scaleEddRK6QFlagsINS_12MatrixOptionEE@ABI_1_1 4:4.11.1
 _ZN16KGameSvgDocument5shearEddRK6QFlagsINS_12MatrixOptionEE@ABI_1_1 4:4.11.1
 _ZN16KGameSvgDocument6rotateEdRK6QFlagsINS_12MatrixOptionEE@ABI_1_1 4:4.11.1
 _ZN16KGameSvgDocument8setStyleERK7QString@ABI_1_1 4:4.11.1
 _ZN16KGameSvgDocument9translateEiiRK6QFlagsINS_12MatrixOptionEE@ABI_1_1 4:4.11.1
 _ZN16KGameSvgDocumentC1ERKS_@ABI_1_1 4:4.11.1
 _ZN16KGameSvgDocumentC1Ev@ABI_1_1 4:4.11.1
 _ZN16KGameSvgDocumentC2ERKS_@ABI_1_1 4:4.11.1
 _ZN16KGameSvgDocumentC2Ev@ABI_1_1 4:4.11.1
 _ZN16KGameSvgDocumentD0Ev@ABI_1_1 4:4.11.1
 _ZN16KGameSvgDocumentD1Ev@ABI_1_1 4:4.11.1
 _ZN16KGameSvgDocumentD2Ev@ABI_1_1 4:4.11.1
 _ZN16KGameSvgDocumentaSERKS_@ABI_1_1 4:4.11.1
 _ZN17KGameCanvasPixmap5paintEP8QPainter@ABI_1_1 4:4.11.1
 _ZN17KGameCanvasPixmap9setPixmapERK7QPixmap@ABI_1_1 4:4.11.1
 _ZN17KGameCanvasPixmapC1EP19KGameCanvasAbstract@ABI_1_1 4:4.11.1
 _ZN17KGameCanvasPixmapC1ERK7QPixmapP19KGameCanvasAbstract@ABI_1_1 4:4.11.1
 _ZN17KGameCanvasPixmapC2EP19KGameCanvasAbstract@ABI_1_1 4:4.11.1
 _ZN17KGameCanvasPixmapC2ERK7QPixmapP19KGameCanvasAbstract@ABI_1_1 4:4.11.1
 _ZN17KGameCanvasPixmapD0Ev@ABI_1_1 4:4.11.1
 _ZN17KGameCanvasPixmapD1Ev@ABI_1_1 4:4.11.1
 _ZN17KGameCanvasPixmapD2Ev@ABI_1_1 4:4.11.1
 _ZN17KGameCanvasWidget10invalidateERK5QRectb@ABI_1_1 4:4.11.1
 _ZN17KGameCanvasWidget10invalidateERK7QRegionb@ABI_1_1 4:4.11.1
 _ZN17KGameCanvasWidget10paintEventEP11QPaintEvent@ABI_1_1 4:4.11.1
 _ZN17KGameCanvasWidget11qt_metacallEN11QMetaObject4CallEiPPv@ABI_1_1 4:4.11.1
 _ZN17KGameCanvasWidget11qt_metacastEPKc@ABI_1_1 4:4.11.1
 _ZN17KGameCanvasWidget13updateChangesEv@ABI_1_1 4:4.11.1
 _ZN17KGameCanvasWidget14topLevelCanvasEv@ABI_1_1 4:4.11.1
 _ZN17KGameCanvasWidget15ensureAnimatingEv@ABI_1_1 4:4.11.1
 _ZN17KGameCanvasWidget16staticMetaObjectE@ABI_1_1 4:4.11.1
 _ZN17KGameCanvasWidget17processAnimationsEv@ABI_1_1 4:4.11.1
 _ZN17KGameCanvasWidget17setAnimationDelayEi@ABI_1_1 4:4.11.1
 _ZN17KGameCanvasWidget19ensurePendingUpdateEv@ABI_1_1 4:4.11.1
 _ZN17KGameCanvasWidget5mSecsEv@ABI_1_1 4:4.11.1
 _ZN17KGameCanvasWidgetC1EP7QWidget@ABI_1_1 4:4.11.1
 _ZN17KGameCanvasWidgetC2EP7QWidget@ABI_1_1 4:4.11.1
 _ZN17KGameCanvasWidgetD0Ev@ABI_1_1 4:4.11.1
 _ZN17KGameCanvasWidgetD1Ev@ABI_1_1 4:4.11.1
 _ZN17KGameCanvasWidgetD2Ev@ABI_1_1 4:4.11.1
 _ZN17KGamePropertyBase10emitSignalEv@ABI_1_1 4:4.11.1
 _ZN17KGamePropertyBase12registerDataEP20KGamePropertyHandlerNS_14PropertyPolicyERK7QString@ABI_1_1 4:4.11.1
 _ZN17KGamePropertyBase12registerDataEiP20KGamePropertyHandlerNS_14PropertyPolicyERK7QString@ABI_1_1 4:4.11.1
 _ZN17KGamePropertyBase12registerDataEiP20KGamePropertyHandlerRK7QString@ABI_1_1 4:4.11.1
 _ZN17KGamePropertyBase12registerDataEiP5KGameRK7QString@ABI_1_1 4:4.11.1
 _ZN17KGamePropertyBase12registerDataEiP7KPlayerRK7QString@ABI_1_1 4:4.11.1
 _ZN17KGamePropertyBase12sendPropertyERK10QByteArray@ABI_1_1 4:4.11.1
 _ZN17KGamePropertyBase12sendPropertyEv@ABI_1_1 4:4.11.1
 _ZN17KGamePropertyBase14unregisterDataEv@ABI_1_1 4:4.11.1
 _ZN17KGamePropertyBase4initEv@ABI_1_1 4:4.11.1
 _ZN17KGamePropertyBase4lockEv@ABI_1_1 4:4.11.1
 _ZN17KGamePropertyBase6unlockEb@ABI_1_1 4:4.11.1
 _ZN17KGamePropertyBase7commandER11QDataStreamib@ABI_1_1 4:4.11.1
 _ZN17KGamePropertyBase7setLockEb@ABI_1_1 4:4.11.1
 _ZN17KGamePropertyBaseC1EiP20KGamePropertyHandler@ABI_1_1 4:4.11.1
 _ZN17KGamePropertyBaseC1EiP5KGame@ABI_1_1 4:4.11.1
 _ZN17KGamePropertyBaseC1EiP7KPlayer@ABI_1_1 4:4.11.1
 _ZN17KGamePropertyBaseC1Ev@ABI_1_1 4:4.11.1
 _ZN17KGamePropertyBaseC2EiP20KGamePropertyHandler@ABI_1_1 4:4.11.1
 _ZN17KGamePropertyBaseC2EiP5KGame@ABI_1_1 4:4.11.1
 _ZN17KGamePropertyBaseC2EiP7KPlayer@ABI_1_1 4:4.11.1
 _ZN17KGamePropertyBaseC2Ev@ABI_1_1 4:4.11.1
 _ZN17KGamePropertyBaseD0Ev@ABI_1_1 4:4.11.1
 _ZN17KGamePropertyBaseD1Ev@ABI_1_1 4:4.11.1
 _ZN17KGamePropertyBaseD2Ev@ABI_1_1 4:4.11.1
 _ZN18KGameCanvasAdapter10invalidateERK5QRectb@ABI_1_1 4:4.11.1
 _ZN18KGameCanvasAdapter10invalidateERK7QRegionb@ABI_1_1 4:4.11.1
 _ZN18KGameCanvasAdapter19ensurePendingUpdateEv@ABI_1_1 4:4.11.1
 _ZN18KGameCanvasAdapter6renderEP8QPainter@ABI_1_1 4:4.11.1
 _ZN18KGameCanvasAdapter9childRectEv@ABI_1_1 4:4.11.1
 _ZN18KGameCanvasAdapterC1Ev@ABI_1_1 4:4.11.1
 _ZN18KGameCanvasAdapterC2Ev@ABI_1_1 4:4.11.1
 (optional=gccinternal|arch=!amd64)_ZN18KGameCanvasAdapterD0Ev@ABI_1_1 4:4.11.1
 (optional=gccinternal|arch=!amd64)_ZN18KGameCanvasAdapterD1Ev@ABI_1_1 4:4.11.1
 (optional=gccinternal|arch=!amd64)_ZN18KGameCanvasAdapterD2Ev@ABI_1_1 4:4.11.1
 _ZN18KGameCanvasPicture10setPictureERK8QPicture@ABI_1_1 4:4.11.1
 _ZN18KGameCanvasPicture5paintEP8QPainter@ABI_1_1 4:4.11.1
 _ZN18KGameCanvasPictureC1EP19KGameCanvasAbstract@ABI_1_1 4:4.11.1
 _ZN18KGameCanvasPictureC1ERK8QPictureP19KGameCanvasAbstract@ABI_1_1 4:4.11.1
 _ZN18KGameCanvasPictureC2EP19KGameCanvasAbstract@ABI_1_1 4:4.11.1
 _ZN18KGameCanvasPictureC2ERK8QPictureP19KGameCanvasAbstract@ABI_1_1 4:4.11.1
 _ZN18KGameCanvasPictureD0Ev@ABI_1_1 4:4.11.1
 _ZN18KGameCanvasPictureD1Ev@ABI_1_1 4:4.11.1
 _ZN18KGameCanvasPictureD2Ev@ABI_1_1 4:4.11.1
 _ZN18KGameThemeSelector11qt_metacallEN11QMetaObject4CallEiPPv@ABI_1_1 4:4.11.1
 _ZN18KGameThemeSelector11qt_metacastEPKc@ABI_1_1 4:4.11.1
 _ZN18KGameThemeSelector16staticMetaObjectE@ABI_1_1 4:4.11.1
 _ZN18KGameThemeSelector25KGameThemeSelectorPrivate10findThemesERK7QString@ABI_1_1 4:4.11.1
 _ZN18KGameThemeSelector25KGameThemeSelectorPrivate16_k_updatePreviewEv@ABI_1_1 4:4.11.1
 _ZN18KGameThemeSelector25KGameThemeSelectorPrivate18_k_updateThemeListERK7QString@ABI_1_1 4:4.11.1
 _ZN18KGameThemeSelector25KGameThemeSelectorPrivate22_k_openKNewStuffDialogEv@ABI_1_1 4:4.11.1
 _ZN18KGameThemeSelector25KGameThemeSelectorPrivate9setupDataEP15KConfigSkeletonNS_13NewStuffStateE@ABI_1_1 4:4.11.1
 _ZN18KGameThemeSelectorC1EP7QWidgetP15KConfigSkeletonNS_13NewStuffStateERK7QStringS7_@ABI_1_1 4:4.11.1
 _ZN18KGameThemeSelectorC2EP7QWidgetP15KConfigSkeletonNS_13NewStuffStateERK7QStringS7_@ABI_1_1 4:4.11.1
 _ZN18KGameThemeSelectorD0Ev@ABI_1_1 4:4.11.1
 _ZN18KGameThemeSelectorD1Ev@ABI_1_1 4:4.11.1
 _ZN18KGameThemeSelectorD2Ev@ABI_1_1 4:4.11.1
 _ZN19KGameCanvasAbstractC1Ev@ABI_1_1 4:4.11.1
 _ZN19KGameCanvasAbstractC2Ev@ABI_1_1 4:4.11.1
 _ZN19KGameCanvasAbstractD0Ev@ABI_1_1 4:4.11.1
 _ZN19KGameCanvasAbstractD1Ev@ABI_1_1 4:4.11.1
 _ZN19KGameCanvasAbstractD2Ev@ABI_1_1 4:4.11.1
 _ZN20KGameCanvasRectangle5paintEP8QPainter@ABI_1_1 4:4.11.1
 _ZN20KGameCanvasRectangle7setSizeERK5QSize@ABI_1_1 4:4.11.1
 _ZN20KGameCanvasRectangle8setColorERK6QColor@ABI_1_1 4:4.11.1
 _ZN20KGameCanvasRectangleC1EP19KGameCanvasAbstract@ABI_1_1 4:4.11.1
 _ZN20KGameCanvasRectangleC1ERK6QColorRK5QSizeP19KGameCanvasAbstract@ABI_1_1 4:4.11.1
 _ZN20KGameCanvasRectangleC2EP19KGameCanvasAbstract@ABI_1_1 4:4.11.1
 _ZN20KGameCanvasRectangleC2ERK6QColorRK5QSizeP19KGameCanvasAbstract@ABI_1_1 4:4.11.1
 _ZN20KGameCanvasRectangleD0Ev@ABI_1_1 4:4.11.1
 _ZN20KGameCanvasRectangleD1Ev@ABI_1_1 4:4.11.1
 _ZN20KGameCanvasRectangleD2Ev@ABI_1_1 4:4.11.1
 _ZN20KGamePropertyHandler10emitSignalEP17KGamePropertyBase@ABI_1_1 4:4.11.1
 _ZN20KGamePropertyHandler11addPropertyEP17KGamePropertyBaseRK7QString@ABI_1_1 4:4.11.1
 _ZN20KGamePropertyHandler11qt_metacallEN11QMetaObject4CallEiPPv@ABI_1_1 4:4.11.1
 _ZN20KGamePropertyHandler11qt_metacastEPKc@ABI_1_1 4:4.11.1
 _ZN20KGamePropertyHandler12sendPropertyER11QDataStream@ABI_1_1 4:4.11.1
 _ZN20KGamePropertyHandler13propertyValueEP17KGamePropertyBase@ABI_1_1 4:4.11.1
 _ZN20KGamePropertyHandler14lockDirectEmitEv@ABI_1_1 4:4.11.1
 _ZN20KGamePropertyHandler14lockPropertiesEv@ABI_1_1 4:4.11.1
 _ZN20KGamePropertyHandler14processMessageER11QDataStreamib@ABI_1_1 4:4.11.1
 _ZN20KGamePropertyHandler14removePropertyEP17KGamePropertyBase@ABI_1_1 4:4.11.1
 _ZN20KGamePropertyHandler15registerHandlerEiPK7QObjectPKcS4_@ABI_1_1 4:4.11.1
 _ZN20KGamePropertyHandler16staticMetaObjectE@ABI_1_1 4:4.11.1
 _ZN20KGamePropertyHandler16uniquePropertyIdEv@ABI_1_1 4:4.11.1
 _ZN20KGamePropertyHandler16unlockDirectEmitEv@ABI_1_1 4:4.11.1
 _ZN20KGamePropertyHandler16unlockPropertiesEv@ABI_1_1 4:4.11.1
 _ZN20KGamePropertyHandler17signalSendMessageEiR11QDataStreamPb@ABI_1_1 4:4.11.1
 _ZN20KGamePropertyHandler18signalRequestValueEP17KGamePropertyBaseR7QString@ABI_1_1 4:4.11.1
 _ZN20KGamePropertyHandler21signalPropertyChangedEP17KGamePropertyBase@ABI_1_1 4:4.11.1
 _ZN20KGamePropertyHandler4findEi@ABI_1_1 4:4.11.1
 _ZN20KGamePropertyHandler4loadER11QDataStream@ABI_1_1 4:4.11.1
 _ZN20KGamePropertyHandler4saveER11QDataStream@ABI_1_1 4:4.11.1
 _ZN20KGamePropertyHandler5DebugEv@ABI_1_1 4:4.11.1
 _ZN20KGamePropertyHandler5clearEv@ABI_1_1 4:4.11.1
 _ZN20KGamePropertyHandler5flushEv@ABI_1_1 4:4.11.1
 _ZN20KGamePropertyHandler5setIdEi@ABI_1_1 4:4.11.1
 _ZN20KGamePropertyHandler6policyEv@ABI_1_1 4:4.11.1
 _ZN20KGamePropertyHandler9setPolicyEN17KGamePropertyBase14PropertyPolicyEb@ABI_1_1 4:4.11.1
 _ZN20KGamePropertyHandlerC1EP7QObject@ABI_1_1 4:4.11.1
 _ZN20KGamePropertyHandlerC1EiPK7QObjectPKcS4_PS0_@ABI_1_1 4:4.11.1
 _ZN20KGamePropertyHandlerC2EP7QObject@ABI_1_1 4:4.11.1
 _ZN20KGamePropertyHandlerC2EiPK7QObjectPKcS4_PS0_@ABI_1_1 4:4.11.1
 _ZN20KGamePropertyHandlerD0Ev@ABI_1_1 4:4.11.1
 _ZN20KGamePropertyHandlerD1Ev@ABI_1_1 4:4.11.1
 _ZN20KGamePropertyHandlerD2Ev@ABI_1_1 4:4.11.1
 _ZN21KChatBaseItemDelegate11qt_metacallEN11QMetaObject4CallEiPPv@ABI_1_1 4:4.11.1
 _ZN21KChatBaseItemDelegate11qt_metacastEPKc@ABI_1_1 4:4.11.1
 _ZN21KChatBaseItemDelegate16staticMetaObjectE@ABI_1_1 4:4.11.1
 _ZN21KChatBaseItemDelegateC1EP7QObject@ABI_1_1 4:4.11.1
 _ZN21KChatBaseItemDelegateC2EP7QObject@ABI_1_1 4:4.11.1
 _ZN21KChatBaseItemDelegateD0Ev@ABI_1_1 4:4.11.1
 _ZN21KChatBaseItemDelegateD1Ev@ABI_1_1 4:4.11.1
 _ZN21KChatBaseItemDelegateD2Ev@ABI_1_1 4:4.11.1
 _ZN22KGameCanvasTiledPixmap13setMoveOriginEb@ABI_1_1 4:4.11.1
 _ZN22KGameCanvasTiledPixmap5paintEP8QPainter@ABI_1_1 4:4.11.1
 _ZN22KGameCanvasTiledPixmap7setSizeERK5QSize@ABI_1_1 4:4.11.1
 _ZN22KGameCanvasTiledPixmap9setOriginERK6QPoint@ABI_1_1 4:4.11.1
 _ZN22KGameCanvasTiledPixmap9setPixmapERK7QPixmap@ABI_1_1 4:4.11.1
 _ZN22KGameCanvasTiledPixmapC1EP19KGameCanvasAbstract@ABI_1_1 4:4.11.1
 _ZN22KGameCanvasTiledPixmapC1ERK7QPixmapRK5QSizeRK6QPointbP19KGameCanvasAbstract@ABI_1_1 4:4.11.1
 _ZN22KGameCanvasTiledPixmapC2EP19KGameCanvasAbstract@ABI_1_1 4:4.11.1
 _ZN22KGameCanvasTiledPixmapC2ERK7QPixmapRK5QSizeRK6QPointbP19KGameCanvasAbstract@ABI_1_1 4:4.11.1
 _ZN22KGameCanvasTiledPixmapD0Ev@ABI_1_1 4:4.11.1
 _ZN22KGameCanvasTiledPixmapD1Ev@ABI_1_1 4:4.11.1
 _ZN22KGameCanvasTiledPixmapD2Ev@ABI_1_1 4:4.11.1
 _ZN25KGameCanvasRenderedPixmap13receivePixmapERK7QPixmap@ABI_1_1 4:4.11.1
 _ZN25KGameCanvasRenderedPixmapC1EP13KGameRendererRK7QStringP19KGameCanvasAbstract@ABI_1_1 4:4.11.1
 _ZN25KGameCanvasRenderedPixmapC2EP13KGameRendererRK7QStringP19KGameCanvasAbstract@ABI_1_1 4:4.11.1
 _ZN25KGameCanvasRenderedPixmapD0Ev@ABI_1_1 4:4.11.1
 _ZN25KGameCanvasRenderedPixmapD1Ev@ABI_1_1 4:4.11.1
 _ZN25KGameCanvasRenderedPixmapD2Ev@ABI_1_1 4:4.11.1
 _ZN5KGame10emitSignalEP17KGamePropertyBase@ABI_1_1 4:4.11.1
 _ZN5KGame10loadPlayerER11QDataStreamb@ABI_1_1 4:4.11.1
 _ZN5KGame10nextPlayerEP7KPlayerb@ABI_1_1 4:4.11.1
 _ZN5KGame10playerListEv@ABI_1_1 4:4.11.1
 _ZN5KGame10savePlayerER11QDataStreamP7KPlayer@ABI_1_1 4:4.11.1
 _ZN5KGame10signalLoadER11QDataStream@ABI_1_1 4:4.11.1
 _ZN5KGame10signalSaveER11QDataStream@ABI_1_1 4:4.11.1
 _ZN5KGame10syncRandomEv@ABI_1_1 4:4.11.1
 _ZN5KGame11addPropertyEP17KGamePropertyBase@ABI_1_1 4:4.11.1
 _ZN5KGame11prepareNextEv@ABI_1_1 4:4.11.1
 _ZN5KGame11qt_metacallEN11QMetaObject4CallEiPPv@ABI_1_1 4:4.11.1
 _ZN5KGame11qt_metacastEPKc@ABI_1_1 4:4.11.1
 _ZN5KGame11savePlayersER11QDataStreamP5QListIP7KPlayerE@ABI_1_1 4:4.11.1
 _ZN5KGame12createPlayerEiib@ABI_1_1 4:4.11.1
 _ZN5KGame12removePlayerEP7KPlayerj@ABI_1_1 4:4.11.1
 _ZN5KGame12sendPropertyEiR11QDataStreamPb@ABI_1_1 4:4.11.1
 _ZN5KGame12systemRemoveEP7KPlayerb@ABI_1_1 4:4.11.1
 _ZN5KGame13checkGameOverEP7KPlayer@ABI_1_1 4:4.11.1
 _ZN5KGame13deletePlayersEv@ABI_1_1 4:4.11.1
 _ZN5KGame13playerDeletedEP7KPlayer@ABI_1_1 4:4.11.1
 _ZN5KGame13setGameStatusEi@ABI_1_1 4:4.11.1
 _ZN5KGame13setMaxPlayersEj@ABI_1_1 4:4.11.1
 _ZN5KGame13setMinPlayersEj@ABI_1_1 4:4.11.1
 _ZN5KGame14activatePlayerEP7KPlayer@ABI_1_1 4:4.11.1
 _ZN5KGame14signalGameOverEiP7KPlayerPS_@ABI_1_1 4:4.11.1
 _ZN5KGame15sendPlayerInputER11QDataStreamP7KPlayerj@ABI_1_1 4:4.11.1
 _ZN5KGame15setGameSequenceEP13KGameSequence@ABI_1_1 4:4.11.1
 _ZN5KGame15signalLoadErrorER11QDataStreambiRb@ABI_1_1 4:4.11.1
 _ZN5KGame15systemAddPlayerEP7KPlayer@ABI_1_1 4:4.11.1
 _ZN5KGame16inactivatePlayerEP7KPlayer@ABI_1_1 4:4.11.1
 _ZN5KGame16sendGroupMessageERK10QByteArrayijRK7QString@ABI_1_1 4:4.11.1
 _ZN5KGame16sendGroupMessageERK11QDataStreamijRK7QString@ABI_1_1 4:4.11.1
 _ZN5KGame16sendGroupMessageERK7QStringijS2_@ABI_1_1 4:4.11.1
 _ZN5KGame16staticMetaObjectE@ABI_1_1 4:4.11.1
 _ZN5KGame17setupGameContinueER11QDataStreamj@ABI_1_1 4:4.11.1
 _ZN5KGame17signalNetworkDataEiRK10QByteArrayjj@ABI_1_1 4:4.11.1
 _ZN5KGame17systemPlayerInputER11QDataStreamP7KPlayerj@ABI_1_1 4:4.11.1
 _ZN5KGame18inactivePlayerListEv@ABI_1_1 4:4.11.1
 _ZN5KGame18sendPlayerPropertyEiR11QDataStreamj@ABI_1_1 4:4.11.1
 _ZN5KGame18systemRemovePlayerEP7KPlayerb@ABI_1_1 4:4.11.1
 _ZN5KGame19networkTransmissionER11QDataStreamijjj@ABI_1_1 4:4.11.1
 _ZN5KGame19playerInputFinishedEP7KPlayer@ABI_1_1 4:4.11.1
 _ZN5KGame19signalMessageUpdateEijj@ABI_1_1 4:4.11.1
 _ZN5KGame19slotClientConnectedEj@ABI_1_1 4:4.11.1
 _ZN5KGame20negotiateNetworkGameEj@ABI_1_1 4:4.11.1
 _ZN5KGame20signalClientLeftGameEiiPS_@ABI_1_1 4:4.11.1
 _ZN5KGame20signalLoadPrePlayersER11QDataStream@ABI_1_1 4:4.11.1
 _ZN5KGame20signalPlayerLeftGameEP7KPlayer@ABI_1_1 4:4.11.1
 _ZN5KGame20signalSavePrePlayersER11QDataStream@ABI_1_1 4:4.11.1
 _ZN5KGame20systemActivatePlayerEP7KPlayer@ABI_1_1 4:4.11.1
 _ZN5KGame21deleteInactivePlayersEv@ABI_1_1 4:4.11.1
 _ZN5KGame21signalPropertyChangedEP17KGamePropertyBasePS_@ABI_1_1 4:4.11.1
 _ZN5KGame21signalReplacePlayerIOEP7KPlayerPb@ABI_1_1 4:4.11.1
 _ZN5KGame22signalClientJoinedGameEjPS_@ABI_1_1 4:4.11.1
 _ZN5KGame22signalPlayerJoinedGameEP7KPlayer@ABI_1_1 4:4.11.1
 _ZN5KGame22slotClientDisconnectedEjb@ABI_1_1 4:4.11.1
 _ZN5KGame22slotServerDisconnectedEv@ABI_1_1 4:4.11.1
 _ZN5KGame22systemInactivatePlayerEP7KPlayer@ABI_1_1 4:4.11.1
 _ZN5KGame4loadER11QDataStreamb@ABI_1_1 4:4.11.1
 _ZN5KGame4loadERK7QStringb@ABI_1_1 4:4.11.1
 _ZN5KGame4saveER11QDataStreamb@ABI_1_1 4:4.11.1
 _ZN5KGame4saveERK7QStringb@ABI_1_1 4:4.11.1
 _ZN5KGame5DebugEv@ABI_1_1 4:4.11.1
 _ZN5KGame5resetEv@ABI_1_1 4:4.11.1
 _ZN5KGame8loadgameER11QDataStreambb@ABI_1_1 4:4.11.1
 _ZN5KGame8savegameER11QDataStreambb@ABI_1_1 4:4.11.1
 _ZN5KGame9addPlayerEP7KPlayer@ABI_1_1 4:4.11.1
 _ZN5KGame9setPolicyENS_10GamePolicyEb@ABI_1_1 4:4.11.1
 _ZN5KGame9setupGameEj@ABI_1_1 4:4.11.1
 _ZN5KGameC1EiP7QObject@ABI_1_1 4:4.11.1
 _ZN5KGameC2EiP7QObject@ABI_1_1 4:4.11.1
 _ZN5KGameD0Ev@ABI_1_1 4:4.11.1
 _ZN5KGameD1Ev@ABI_1_1 4:4.11.1
 _ZN5KGameD2Ev@ABI_1_1 4:4.11.1
 _ZN7KGameIO10notifyTurnEb@ABI_1_1 4:4.11.1
 _ZN7KGameIO11qt_metacallEN11QMetaObject4CallEiPPv@ABI_1_1 4:4.11.1
 _ZN7KGameIO11qt_metacastEPKc@ABI_1_1 4:4.11.1
 _ZN7KGameIO16staticMetaObjectE@ABI_1_1 4:4.11.1
 _ZN7KGameIO17signalPrepareTurnER11QDataStreambPS_Pb@ABI_1_1 4:4.11.1
 _ZN7KGameIO5DebugEv@ABI_1_1 4:4.11.1
 _ZN7KGameIO6initIOEP7KPlayer@ABI_1_1 4:4.11.1
 _ZN7KGameIO9sendInputER11QDataStreambj@ABI_1_1 4:4.11.1
 _ZN7KGameIO9setPlayerEP7KPlayer@ABI_1_1 4:4.11.1
 _ZN7KGameIOC1EP7KPlayer@ABI_1_1 4:4.11.1
 _ZN7KGameIOC1Ev@ABI_1_1 4:4.11.1
 _ZN7KGameIOC2EP7KPlayer@ABI_1_1 4:4.11.1
 _ZN7KGameIOC2Ev@ABI_1_1 4:4.11.1
 _ZN7KGameIOD0Ev@ABI_1_1 4:4.11.1
 _ZN7KGameIOD1Ev@ABI_1_1 4:4.11.1
 _ZN7KGameIOD2Ev@ABI_1_1 4:4.11.1
 _ZN7KPlayer10emitSignalEP17KGamePropertyBase@ABI_1_1 4:4.11.1
 _ZN7KPlayer10setVirtualEb@ABI_1_1 4:4.11.1
 _ZN7KPlayer11addPropertyEP17KGamePropertyBase@ABI_1_1 4:4.11.1
 _ZN7KPlayer11calcIOValueEv@ABI_1_1 4:4.11.1
 _ZN7KPlayer11dataHandlerEv@ABI_1_1 4:4.11.1
 _ZN7KPlayer11qt_metacallEN11QMetaObject4CallEiPPv@ABI_1_1 4:4.11.1
 _ZN7KPlayer11qt_metacastEPKc@ABI_1_1 4:4.11.1
 _ZN7KPlayer12forwardInputER11QDataStreambj@ABI_1_1 4:4.11.1
 _ZN7KPlayer12removeGameIOEP7KGameIOb@ABI_1_1 4:4.11.1
 _ZN7KPlayer12sendPropertyEiR11QDataStreamPb@ABI_1_1 4:4.11.1
 _ZN7KPlayer13setAsyncInputEb@ABI_1_1 4:4.11.1
 _ZN7KPlayer14forwardMessageER11QDataStreamijj@ABI_1_1 4:4.11.1
 _ZN7KPlayer16setNetworkPlayerEPS_@ABI_1_1 4:4.11.1
 _ZN7KPlayer16staticMetaObjectE@ABI_1_1 4:4.11.1
 _ZN7KPlayer17signalNetworkDataEiRK10QByteArrayjPS_@ABI_1_1 4:4.11.1
 _ZN7KPlayer18setNetworkPriorityEi@ABI_1_1 4:4.11.1
 _ZN7KPlayer19networkTransmissionER11QDataStreamij@ABI_1_1 4:4.11.1
 _ZN7KPlayer21signalPropertyChangedEP17KGamePropertyBasePS_@ABI_1_1 4:4.11.1
 _ZN7KPlayer4initEv@ABI_1_1 4:4.11.1
 _ZN7KPlayer4loadER11QDataStream@ABI_1_1 4:4.11.1
 _ZN7KPlayer4saveER11QDataStream@ABI_1_1 4:4.11.1
 _ZN7KPlayer5DebugEv@ABI_1_1 4:4.11.1
 _ZN7KPlayer5setIdEj@ABI_1_1 4:4.11.1
 _ZN7KPlayer6ioListEv@ABI_1_1 4:4.11.1
 _ZN7KPlayer7setGameEP5KGame@ABI_1_1 4:4.11.1
 _ZN7KPlayer7setNameERK7QString@ABI_1_1 4:4.11.1
 _ZN7KPlayer7setTurnEbb@ABI_1_1 4:4.11.1
 _ZN7KPlayer8setGroupERK7QString@ABI_1_1 4:4.11.1
 _ZN7KPlayer9addGameIOEP7KGameIO@ABI_1_1 4:4.11.1
 _ZN7KPlayer9setActiveEb@ABI_1_1 4:4.11.1
 _ZN7KPlayer9setUserIdEi@ABI_1_1 4:4.11.1
 _ZN7KPlayerC1Ev@ABI_1_1 4:4.11.1
 _ZN7KPlayerC2Ev@ABI_1_1 4:4.11.1
 _ZN7KPlayerD0Ev@ABI_1_1 4:4.11.1
 _ZN7KPlayerD1Ev@ABI_1_1 4:4.11.1
 _ZN7KPlayerD2Ev@ABI_1_1 4:4.11.1
 _ZN9KChatBase10addMessageERK7QStringS2_@ABI_1_1 4:4.11.1
 _ZN9KChatBase10readConfigEP7KConfig@ABI_1_1 4:4.11.1
 _ZN9KChatBase10saveConfigEP7KConfig@ABI_1_1 4:4.11.1
 _ZN9KChatBase11qt_metacallEN11QMetaObject4CallEiPPv@ABI_1_1 4:4.11.1
 _ZN9KChatBase11qt_metacastEPKc@ABI_1_1 4:4.11.1
 _ZN9KChatBase11setBothFontERK5QFont@ABI_1_1 4:4.11.1
 _ZN9KChatBase11setMaxItemsEi@ABI_1_1 4:4.11.1
 _ZN9KChatBase11setNameFontERK5QFont@ABI_1_1 4:4.11.1
 _ZN9KChatBase14setMessageFontERK5QFont@ABI_1_1 4:4.11.1
 _ZN9KChatBase15addSendingEntryERK7QStringi@ABI_1_1 4:4.11.1
 _ZN9KChatBase15setSendingEntryEi@ABI_1_1 4:4.11.1
 _ZN9KChatBase16addSystemMessageERK7QStringS2_@ABI_1_1 4:4.11.1
 _ZN9KChatBase16setAcceptMessageEb@ABI_1_1 4:4.11.1
 _ZN9KChatBase16staticMetaObjectE@ABI_1_1 4:4.11.1
 _ZN9KChatBase17customMenuHandlerERK6QPoint@ABI_1_1 4:4.11.1
 _ZN9KChatBase17setCompletionModeEN15KGlobalSettings10CompletionE@ABI_1_1 4:4.11.1
 _ZN9KChatBase17setSystemBothFontERK5QFont@ABI_1_1 4:4.11.1
 _ZN9KChatBase17setSystemNameFontERK5QFont@ABI_1_1 4:4.11.1
 _ZN9KChatBase17slotReturnPressedERK7QString@ABI_1_1 4:4.11.1
 _ZN9KChatBase18changeSendingEntryERK7QStringi@ABI_1_1 4:4.11.1
 _ZN9KChatBase18insertSendingEntryERK7QStringii@ABI_1_1 4:4.11.1
 _ZN9KChatBase18removeSendingEntryEi@ABI_1_1 4:4.11.1
 _ZN9KChatBase20setSystemMessageFontERK5QFont@ABI_1_1 4:4.11.1
 _ZN9KChatBase5clearEv@ABI_1_1 4:4.11.1
 _ZN9KChatBase5modelEv@ABI_1_1 4:4.11.1
 _ZN9KChatBase8setModelEP14KChatBaseModel@ABI_1_1 4:4.11.1
 _ZN9KChatBase9slotClearEv@ABI_1_1 4:4.11.1
 _ZN9KChatBaseC1EP7QWidgetP14KChatBaseModelP21KChatBaseItemDelegateb@ABI_1_1 4:4.11.1
 _ZN9KChatBaseC2EP7QWidgetP14KChatBaseModelP21KChatBaseItemDelegateb@ABI_1_1 4:4.11.1
 _ZN9KChatBaseD0Ev@ABI_1_1 4:4.11.1
 _ZN9KChatBaseD1Ev@ABI_1_1 4:4.11.1
 _ZN9KChatBaseD2Ev@ABI_1_1 4:4.11.1
 _ZN9KGameChat10addMessageEiRK7QString@ABI_1_1 4:4.11.1
 _ZN9KGameChat11qt_metacallEN11QMetaObject4CallEiPPv@ABI_1_1 4:4.11.1
 _ZN9KGameChat11qt_metacastEPKc@ABI_1_1 4:4.11.1
 _ZN9KGameChat12setMessageIdEi@ABI_1_1 4:4.11.1
 _ZN9KGameChat13returnPressedERK7QString@ABI_1_1 4:4.11.1
 _ZN9KGameChat13setFromPlayerEP7KPlayer@ABI_1_1 4:4.11.1
 _ZN9KGameChat13slotAddPlayerEP7KPlayer@ABI_1_1 4:4.11.1
 _ZN9KGameChat14slotUnsetKGameEv@ABI_1_1 4:4.11.1
 _ZN9KGameChat16slotRemovePlayerEP7KPlayer@ABI_1_1 4:4.11.1
 _ZN9KGameChat16staticMetaObjectE@ABI_1_1 4:4.11.1
 _ZN9KGameChat18slotReceiveMessageEiRK10QByteArrayjj@ABI_1_1 4:4.11.1
 _ZN9KGameChat19slotPropertyChangedEP17KGamePropertyBaseP7KPlayer@ABI_1_1 4:4.11.1
 _ZN9KGameChat25slotReceivePrivateMessageEiRK10QByteArrayjP7KPlayer@ABI_1_1 4:4.11.1
 _ZN9KGameChat4initEP5KGamei@ABI_1_1 4:4.11.1
 _ZN9KGameChat8setKGameEP5KGame@ABI_1_1 4:4.11.1
 _ZN9KGameChatC1EP5KGameiP7KPlayerP7QWidgetP14KChatBaseModelP21KChatBaseItemDelegate@ABI_1_1 4:4.11.1
 _ZN9KGameChatC1EP5KGameiP7QWidgetP14KChatBaseModelP21KChatBaseItemDelegate@ABI_1_1 4:4.11.1
 _ZN9KGameChatC1EP7QWidget@ABI_1_1 4:4.11.1
 _ZN9KGameChatC2EP5KGameiP7KPlayerP7QWidgetP14KChatBaseModelP21KChatBaseItemDelegate@ABI_1_1 4:4.11.1
 _ZN9KGameChatC2EP5KGameiP7QWidgetP14KChatBaseModelP21KChatBaseItemDelegate@ABI_1_1 4:4.11.1
 _ZN9KGameChatC2EP7QWidget@ABI_1_1 4:4.11.1
 _ZN9KGameChatD0Ev@ABI_1_1 4:4.11.1
 _ZN9KGameChatD1Ev@ABI_1_1 4:4.11.1
 _ZN9KGameChatD2Ev@ABI_1_1 4:4.11.1
 _ZNK10KGameKeyIO10metaObjectEv@ABI_1_1 4:4.11.1
 _ZNK10KGameKeyIO4rttiEv@ABI_1_1 4:4.11.1
 _ZNK10KGameTheme13themePropertyERK7QString@ABI_1_1 4:4.11.1
 _ZNK10KGameTheme4pathEv@ABI_1_1 4:4.11.1
 _ZNK10KGameTheme7previewEv@ABI_1_1 4:4.11.1
 _ZNK10KGameTheme8fileNameEv@ABI_1_1 4:4.11.1
 _ZNK10KGameTheme8graphicsEv@ABI_1_1 4:4.11.1
 _ZNK10KGameTheme8propertyERK7QString@ABI_1_1 4:4.11.1
 _ZNK10KMessageIO10metaObjectEv@ABI_1_1 4:4.11.1
 _ZNK12KGameMouseIO10metaObjectEv@ABI_1_1 4:4.11.1
 _ZNK12KGameMouseIO4rttiEv@ABI_1_1 4:4.11.1
 _ZNK12KGameNetwork10metaObjectEv@ABI_1_1 4:4.11.1
 _ZNK12KGameNetwork13messageClientEv@ABI_1_1 4:4.11.1
 _ZNK12KGameNetwork13messageServerEv@ABI_1_1 4:4.11.1
 _ZNK12KGameNetwork21isOfferingConnectionsEv@ABI_1_1 4:4.11.1
 _ZNK12KGameNetwork4portEv@ABI_1_1 4:4.11.1
 _ZNK12KGameNetwork6cookieEv@ABI_1_1 4:4.11.1
 _ZNK12KGameNetwork6gameIdEv@ABI_1_1 4:4.11.1
 _ZNK12KGameNetwork7isAdminEv@ABI_1_1 4:4.11.1
 _ZNK12KGameNetwork8hostNameEv@ABI_1_1 4:4.11.1
 _ZNK12KGameNetwork8isMasterEv@ABI_1_1 4:4.11.1
 _ZNK12KGameNetwork9isNetworkEv@ABI_1_1 4:4.11.1
 _ZNK13KGameSequence10metaObjectEv@ABI_1_1 4:4.11.1
 _ZNK13KGameSequence13currentPlayerEv@ABI_1_1 4:4.11.1
 _ZNK13KGameSequence4gameEv@ABI_1_1 4:4.11.1
 _ZNK14KChatBaseModel10metaObjectEv@ABI_1_1 4:4.11.1
 _ZNK14KChatBaseModel11messageFontEv@ABI_1_1 4:4.11.1
 _ZNK14KChatBaseModel14systemNameFontEv@ABI_1_1 4:4.11.1
 _ZNK14KChatBaseModel17systemMessageFontEv@ABI_1_1 4:4.11.1
 _ZNK14KChatBaseModel4dataERK11QModelIndexi@ABI_1_1 4:4.11.1
 _ZNK14KChatBaseModel8maxItemsEv@ABI_1_1 4:4.11.1
 _ZNK14KChatBaseModel8nameFontEv@ABI_1_1 4:4.11.1
 _ZNK14KChatBaseModel8rowCountERK11QModelIndex@ABI_1_1 4:4.11.1
 _ZNK14KGameProcessIO10metaObjectEv@ABI_1_1 4:4.11.1
 _ZNK14KGameProcessIO4rttiEv@ABI_1_1 4:4.11.1
 _ZNK14KMessageClient10clientListEv@ABI_1_1 4:4.11.1
 _ZNK14KMessageClient10metaObjectEv@ABI_1_1 4:4.11.1
 _ZNK14KMessageClient11isConnectedEv@ABI_1_1 4:4.11.1
 _ZNK14KMessageClient19delayedMessageCountEv@ABI_1_1 4:4.11.1
 _ZNK14KMessageClient2idEv@ABI_1_1 4:4.11.1
 _ZNK14KMessageClient7adminIdEv@ABI_1_1 4:4.11.1
 _ZNK14KMessageClient7isAdminEv@ABI_1_1 4:4.11.1
 _ZNK14KMessageClient8peerNameEv@ABI_1_1 4:4.11.1
 _ZNK14KMessageClient8peerPortEv@ABI_1_1 4:4.11.1
 _ZNK14KMessageClient9isNetworkEv@ABI_1_1 4:4.11.1
 _ZNK14KMessageServer10findClientEj@ABI_1_1 4:4.11.1
 _ZNK14KMessageServer10maxClientsEv@ABI_1_1 4:4.11.1
 _ZNK14KMessageServer10metaObjectEv@ABI_1_1 4:4.11.1
 _ZNK14KMessageServer10serverPortEv@ABI_1_1 4:4.11.1
 _ZNK14KMessageServer11clientCountEv@ABI_1_1 4:4.11.1
 _ZNK14KMessageServer18uniqueClientNumberEv@ABI_1_1 4:4.11.1
 _ZNK14KMessageServer21isOfferingConnectionsEv@ABI_1_1 4:4.11.1
 _ZNK14KMessageServer7adminIDEv@ABI_1_1 4:4.11.1
 _ZNK14KMessageServer9clientIDsEv@ABI_1_1 4:4.11.1
 _ZNK15KGameCanvasItem16absolutePositionEv@ABI_1_1 4:4.11.1
 _ZNK15KGameCanvasItem7layeredEv@ABI_1_1 4:4.11.1
 _ZNK15KGameCanvasText15offsetToDrawPosEv@ABI_1_1 4:4.11.1
 _ZNK15KGameCanvasText4rectEv@ABI_1_1 4:4.11.1
 _ZNK15KGameComputerIO10metaObjectEv@ABI_1_1 4:4.11.1
 _ZNK15KGameComputerIO14reactionPeriodEv@ABI_1_1 4:4.11.1
 _ZNK15KGameComputerIO4rttiEv@ABI_1_1 4:4.11.1
 _ZNK16KGameCanvasDummy4rectEv@ABI_1_1 4:4.11.1
 _ZNK16KGameCanvasGroup14canvasPositionEv@ABI_1_1 4:4.11.1
 _ZNK16KGameCanvasGroup4rectEv@ABI_1_1 4:4.11.1
 _ZNK16KGameSvgDocument11currentNodeEv@ABI_1_1 4:4.11.1
 _ZNK16KGameSvgDocument11svgFilenameEv@ABI_1_1 4:4.11.1
 _ZNK16KGameSvgDocument13stylePropertyERK7QString@ABI_1_1 4:4.11.1
 _ZNK16KGameSvgDocument15linearGradientsEv@ABI_1_1 4:4.11.1
 _ZNK16KGameSvgDocument15nodeToByteArrayEv@ABI_1_1 4:4.11.1
 _ZNK16KGameSvgDocument15radialGradientsEv@ABI_1_1 4:4.11.1
 _ZNK16KGameSvgDocument15stylePropertiesEv@ABI_1_1 4:4.11.1
 _ZNK16KGameSvgDocument15transformMatrixEv@ABI_1_1 4:4.11.1
 _ZNK16KGameSvgDocument3defEv@ABI_1_1 4:4.11.1
 _ZNK16KGameSvgDocument4defsEv@ABI_1_1 4:4.11.1
 _ZNK16KGameSvgDocument5styleEv@ABI_1_1 4:4.11.1
 _ZNK16KGameSvgDocument8patternsEv@ABI_1_1 4:4.11.1
 _ZNK16KGameSvgDocument9nodeToSvgEv@ABI_1_1 4:4.11.1
 _ZNK16KGameSvgDocument9transformEv@ABI_1_1 4:4.11.1
 _ZNK17KGameCanvasPixmap4rectEv@ABI_1_1 4:4.11.1
 _ZNK17KGameCanvasWidget10metaObjectEv@ABI_1_1 4:4.11.1
 _ZNK17KGameCanvasWidget14canvasPositionEv@ABI_1_1 4:4.11.1
 _ZNK18KGameCanvasPicture4rectEv@ABI_1_1 4:4.11.1
 _ZNK18KGameThemeSelector10metaObjectEv@ABI_1_1 4:4.11.1
 _ZNK19KGameCanvasAbstract6itemAtERK6QPoint@ABI_1_1 4:4.11.1
 _ZNK19KGameCanvasAbstract7itemsAtERK6QPoint@ABI_1_1 4:4.11.1
 _ZNK20KGameCanvasRectangle4rectEv@ABI_1_1 4:4.11.1
 _ZNK20KGamePropertyHandler10metaObjectEv@ABI_1_1 4:4.11.1
 _ZNK20KGamePropertyHandler12propertyNameEi@ABI_1_1 4:4.11.1
 _ZNK20KGamePropertyHandler2idEv@ABI_1_1 4:4.11.1
 _ZNK20KGamePropertyHandler4dictEv@ABI_1_1 4:4.11.1
 _ZNK21KChatBaseItemDelegate10metaObjectEv@ABI_1_1 4:4.11.1
 _ZNK21KChatBaseItemDelegate5paintEP8QPainterRK20QStyleOptionViewItemRK11QModelIndex@ABI_1_1 4:4.11.1
 _ZNK21KChatBaseItemDelegate5paintEP8QPainterRK20QStyleOptionViewItemRK11QModelIndexRK7QStringSA_@ABI_1_1 4:4.11.1
 _ZNK21KChatBaseItemDelegate8sizeHintERK20QStyleOptionViewItemRK11QModelIndex@ABI_1_1 4:4.11.1
 _ZNK21KChatBaseItemDelegate8sizeHintERK20QStyleOptionViewItemRK11QModelIndexRK7QStringS8_@ABI_1_1 4:4.11.1
 _ZNK22KGameCanvasTiledPixmap4rectEv@ABI_1_1 4:4.11.1
 _ZNK5KGame10findPlayerEj@ABI_1_1 4:4.11.1
 _ZNK5KGame10gameStatusEv@ABI_1_1 4:4.11.1
 _ZNK5KGame10maxPlayersEv@ABI_1_1 4:4.11.1
 _ZNK5KGame10metaObjectEv@ABI_1_1 4:4.11.1
 _ZNK5KGame10minPlayersEv@ABI_1_1 4:4.11.1
 _ZNK5KGame10playerListEv@ABI_1_1 4:4.11.1
 _ZNK5KGame11dataHandlerEv@ABI_1_1 4:4.11.1
 _ZNK5KGame11playerCountEv@ABI_1_1 4:4.11.1
 _ZNK5KGame12findPropertyEi@ABI_1_1 4:4.11.1
 _ZNK5KGame12gameSequenceEv@ABI_1_1 4:4.11.1
 _ZNK5KGame18inactivePlayerListEv@ABI_1_1 4:4.11.1
 _ZNK5KGame6policyEv@ABI_1_1 4:4.11.1
 _ZNK5KGame6randomEv@ABI_1_1 4:4.11.1
 _ZNK5KGame9isRunningEv@ABI_1_1 4:4.11.1
 _ZNK7KGameIO10metaObjectEv@ABI_1_1 4:4.11.1
 _ZNK7KGameIO4gameEv@ABI_1_1 4:4.11.1
 _ZNK7KGameIO6playerEv@ABI_1_1 4:4.11.1
 _ZNK7KPlayer10asyncInputEv@ABI_1_1 4:4.11.1
 _ZNK7KPlayer10findRttiIOEi@ABI_1_1 4:4.11.1
 _ZNK7KPlayer10metaObjectEv@ABI_1_1 4:4.11.1
 _ZNK7KPlayer12findPropertyEi@ABI_1_1 4:4.11.1
 _ZNK7KPlayer13networkPlayerEv@ABI_1_1 4:4.11.1
 _ZNK7KPlayer15networkPriorityEv@ABI_1_1 4:4.11.1
 _ZNK7KPlayer2idEv@ABI_1_1 4:4.11.1
 _ZNK7KPlayer4gameEv@ABI_1_1 4:4.11.1
 _ZNK7KPlayer4nameEv@ABI_1_1 4:4.11.1
 _ZNK7KPlayer4rttiEv@ABI_1_1 4:4.11.1
 _ZNK7KPlayer5groupEv@ABI_1_1 4:4.11.1
 _ZNK7KPlayer6myTurnEv@ABI_1_1 4:4.11.1
 _ZNK7KPlayer6userIdEv@ABI_1_1 4:4.11.1
 _ZNK7KPlayer7hasRttiEi@ABI_1_1 4:4.11.1
 _ZNK7KPlayer8isActiveEv@ABI_1_1 4:4.11.1
 _ZNK7KPlayer9isVirtualEv@ABI_1_1 4:4.11.1
 _ZNK9KChatBase10metaObjectEv@ABI_1_1 4:4.11.1
 _ZNK9KChatBase11messageFontEv@ABI_1_1 4:4.11.1
 _ZNK9KChatBase12comboBoxItemERK7QString@ABI_1_1 4:4.11.1
 _ZNK9KChatBase12sendingEntryEv@ABI_1_1 4:4.11.1
 _ZNK9KChatBase13acceptMessageEv@ABI_1_1 4:4.11.1
 _ZNK9KChatBase14systemNameFontEv@ABI_1_1 4:4.11.1
 _ZNK9KChatBase17systemMessageFontEv@ABI_1_1 4:4.11.1
 _ZNK9KChatBase6nextIdEv@ABI_1_1 4:4.11.1
 _ZNK9KChatBase7indexAtERK6QPoint@ABI_1_1 4:4.11.1
 _ZNK9KChatBase8maxItemsEv@ABI_1_1 4:4.11.1
 _ZNK9KChatBase8nameFontEv@ABI_1_1 4:4.11.1
 _ZNK9KChatBase9findIndexEi@ABI_1_1 4:4.11.1
 _ZNK9KGameChat10fromPlayerEv@ABI_1_1 4:4.11.1
 _ZNK9KGameChat10metaObjectEv@ABI_1_1 4:4.11.1
 _ZNK9KGameChat16isToGroupMessageEi@ABI_1_1 4:4.11.1
 _ZNK9KGameChat17isToPlayerMessageEi@ABI_1_1 4:4.11.1
 _ZNK9KGameChat17sendToPlayerEntryERK7QString@ABI_1_1 4:4.11.1
 _ZNK9KGameChat18isSendToAllMessageEi@ABI_1_1 4:4.11.1
 _ZNK9KGameChat4gameEv@ABI_1_1 4:4.11.1
 _ZNK9KGameChat8fromNameEv@ABI_1_1 4:4.11.1
 _ZNK9KGameChat8playerIdEi@ABI_1_1 4:4.11.1
 _ZNK9KGameChat9hasPlayerEi@ABI_1_1 4:4.11.1
 _ZNK9KGameChat9messageIdEv@ABI_1_1 4:4.11.1
 _ZNK9KGameChat9sendingIdEi@ABI_1_1 4:4.11.1
 _ZTI10KGameKeyIO@ABI_1_1 4:4.11.1
 _ZTI10KGameTheme@ABI_1_1 4:4.11.1
 _ZTI10KMessageIO@ABI_1_1 4:4.11.1
 _ZTI12KGameMouseIO@ABI_1_1 4:4.11.1
 _ZTI12KGameNetwork@ABI_1_1 4:4.11.1
 _ZTI13KGameSequence@ABI_1_1 4:4.11.1
 _ZTI14KChatBaseModel@ABI_1_1 4:4.11.1
 _ZTI14KGameProcessIO@ABI_1_1 4:4.11.1
 _ZTI14KMessageClient@ABI_1_1 4:4.11.1
 _ZTI14KMessageServer@ABI_1_1 4:4.11.1
 _ZTI15KGameCanvasItem@ABI_1_1 4:4.11.1
 _ZTI15KGameCanvasText@ABI_1_1 4:4.11.1
 _ZTI15KGameComputerIO@ABI_1_1 4:4.11.1
 _ZTI15KGameDifficulty@ABI_1_1 4:4.11.1
 _ZTI16KChatBaseMessage@ABI_1_1 4:4.11.1
 _ZTI16KGameCanvasDummy@ABI_1_1 4:4.11.1
 _ZTI16KGameCanvasGroup@ABI_1_1 4:4.11.1
 _ZTI16KGameSvgDocument@ABI_1_1 4:4.11.1
 _ZTI17KGameCanvasPixmap@ABI_1_1 4:4.11.1
 _ZTI17KGameCanvasWidget@ABI_1_1 4:4.11.1
 _ZTI17KGamePropertyBase@ABI_1_1 4:4.11.1
 _ZTI18KGameCanvasAdapter@ABI_1_1 4:4.11.1
 _ZTI18KGameCanvasPicture@ABI_1_1 4:4.11.1
 _ZTI18KGameThemeSelector@ABI_1_1 4:4.11.1
 _ZTI19KGameCanvasAbstract@ABI_1_1 4:4.11.1
 _ZTI20KGameCanvasRectangle@ABI_1_1 4:4.11.1
 _ZTI20KGamePropertyHandler@ABI_1_1 4:4.11.1
 _ZTI21KChatBaseItemDelegate@ABI_1_1 4:4.11.1
 _ZTI22KGameCanvasTiledPixmap@ABI_1_1 4:4.11.1
 _ZTI25KGameCanvasRenderedPixmap@ABI_1_1 4:4.11.1
 _ZTI5KGame@ABI_1_1 4:4.11.1
 _ZTI7KGameIO@ABI_1_1 4:4.11.1
 _ZTI7KPlayer@ABI_1_1 4:4.11.1
 _ZTI9KChatBase@ABI_1_1 4:4.11.1
 _ZTI9KGameChat@ABI_1_1 4:4.11.1
 _ZTIP17KGamePropertyBase@ABI_1_1 4:4.11.1
 _ZTS10KGameKeyIO@ABI_1_1 4:4.11.1
 _ZTS10KGameTheme@ABI_1_1 4:4.11.1
 _ZTS10KMessageIO@ABI_1_1 4:4.11.1
 _ZTS12KGameMouseIO@ABI_1_1 4:4.11.1
 _ZTS12KGameNetwork@ABI_1_1 4:4.11.1
 _ZTS13KGameSequence@ABI_1_1 4:4.11.1
 _ZTS14KChatBaseModel@ABI_1_1 4:4.11.1
 _ZTS14KGameProcessIO@ABI_1_1 4:4.11.1
 _ZTS14KMessageClient@ABI_1_1 4:4.11.1
 _ZTS14KMessageServer@ABI_1_1 4:4.11.1
 _ZTS15KGameCanvasItem@ABI_1_1 4:4.11.1
 _ZTS15KGameCanvasText@ABI_1_1 4:4.11.1
 _ZTS15KGameComputerIO@ABI_1_1 4:4.11.1
 _ZTS15KGameDifficulty@ABI_1_1 4:4.11.1
 _ZTS16KChatBaseMessage@ABI_1_1 4:4.11.1
 _ZTS16KGameCanvasDummy@ABI_1_1 4:4.11.1
 _ZTS16KGameCanvasGroup@ABI_1_1 4:4.11.1
 _ZTS16KGameSvgDocument@ABI_1_1 4:4.11.1
 _ZTS17KGameCanvasPixmap@ABI_1_1 4:4.11.1
 _ZTS17KGameCanvasWidget@ABI_1_1 4:4.11.1
 _ZTS17KGamePropertyBase@ABI_1_1 4:4.11.1
 _ZTS18KGameCanvasAdapter@ABI_1_1 4:4.11.1
 _ZTS18KGameCanvasPicture@ABI_1_1 4:4.11.1
 _ZTS18KGameThemeSelector@ABI_1_1 4:4.11.1
 _ZTS19KGameCanvasAbstract@ABI_1_1 4:4.11.1
 _ZTS20KGameCanvasRectangle@ABI_1_1 4:4.11.1
 _ZTS20KGamePropertyHandler@ABI_1_1 4:4.11.1
 _ZTS21KChatBaseItemDelegate@ABI_1_1 4:4.11.1
 _ZTS22KGameCanvasTiledPixmap@ABI_1_1 4:4.11.1
 _ZTS25KGameCanvasRenderedPixmap@ABI_1_1 4:4.11.1
 _ZTS5KGame@ABI_1_1 4:4.11.1
 _ZTS7KGameIO@ABI_1_1 4:4.11.1
 _ZTS7KPlayer@ABI_1_1 4:4.11.1
 _ZTS9KChatBase@ABI_1_1 4:4.11.1
 _ZTS9KGameChat@ABI_1_1 4:4.11.1
 _ZTSP17KGamePropertyBase@ABI_1_1 4:4.11.1
 _ZTV10KGameKeyIO@ABI_1_1 4:4.11.1
 _ZTV10KGameTheme@ABI_1_1 4:4.11.1
 _ZTV10KMessageIO@ABI_1_1 4:4.11.1
 _ZTV12KGameMouseIO@ABI_1_1 4:4.11.1
 _ZTV12KGameNetwork@ABI_1_1 4:4.11.1
 _ZTV13KGameSequence@ABI_1_1 4:4.11.1
 _ZTV14KChatBaseModel@ABI_1_1 4:4.11.1
 _ZTV14KGameProcessIO@ABI_1_1 4:4.11.1
 _ZTV14KMessageClient@ABI_1_1 4:4.11.1
 _ZTV14KMessageServer@ABI_1_1 4:4.11.1
 _ZTV15KGameCanvasItem@ABI_1_1 4:4.11.1
 _ZTV15KGameCanvasText@ABI_1_1 4:4.11.1
 _ZTV15KGameComputerIO@ABI_1_1 4:4.11.1
 _ZTV15KGameDifficulty@ABI_1_1 4:4.11.1
 _ZTV16KChatBaseMessage@ABI_1_1 4:4.11.1
 _ZTV16KGameCanvasDummy@ABI_1_1 4:4.11.1
 _ZTV16KGameCanvasGroup@ABI_1_1 4:4.11.1
 _ZTV16KGameSvgDocument@ABI_1_1 4:4.11.1
 _ZTV17KGameCanvasPixmap@ABI_1_1 4:4.11.1
 _ZTV17KGameCanvasWidget@ABI_1_1 4:4.11.1
 _ZTV17KGamePropertyBase@ABI_1_1 4:4.11.1
 _ZTV18KGameCanvasAdapter@ABI_1_1 4:4.11.1
 _ZTV18KGameCanvasPicture@ABI_1_1 4:4.11.1
 _ZTV18KGameThemeSelector@ABI_1_1 4:4.11.1
 _ZTV19KGameCanvasAbstract@ABI_1_1 4:4.11.1
 _ZTV20KGameCanvasRectangle@ABI_1_1 4:4.11.1
 _ZTV20KGamePropertyHandler@ABI_1_1 4:4.11.1
 _ZTV21KChatBaseItemDelegate@ABI_1_1 4:4.11.1
 _ZTV22KGameCanvasTiledPixmap@ABI_1_1 4:4.11.1
 _ZTV25KGameCanvasRenderedPixmap@ABI_1_1 4:4.11.1
 _ZTV5KGame@ABI_1_1 4:4.11.1
 _ZTV7KGameIO@ABI_1_1 4:4.11.1
 _ZTV7KPlayer@ABI_1_1 4:4.11.1
 _ZTV9KChatBase@ABI_1_1 4:4.11.1
 _ZTV9KGameChat@ABI_1_1 4:4.11.1
 (c++)"non-virtual thunk to KChatBase::~KChatBase()@ABI_1_1" 4:4.11.1
 (c++)"non-virtual thunk to KGameCanvasGroup::canvasPosition() const@ABI_1_1" 4:4.11.1
 (c++)"non-virtual thunk to KGameCanvasGroup::ensureAnimating()@ABI_1_1" 4:4.11.1
 (c++)"non-virtual thunk to KGameCanvasGroup::ensurePendingUpdate()@ABI_1_1" 4:4.11.1
 (c++)"non-virtual thunk to KGameCanvasGroup::invalidate(QRect const&, bool)@ABI_1_1" 4:4.11.1
 (c++)"non-virtual thunk to KGameCanvasGroup::invalidate(QRegion const&, bool)@ABI_1_1" 4:4.11.1
 (c++)"non-virtual thunk to KGameCanvasGroup::topLevelCanvas()@ABI_1_1" 4:4.11.1
 (c++)"non-virtual thunk to KGameCanvasGroup::~KGameCanvasGroup()@ABI_1_1" 4:4.11.1
 (c++)"non-virtual thunk to KGameCanvasRenderedPixmap::receivePixmap(QPixmap const&)@ABI_1_1" 4:4.11.1
 (c++)"non-virtual thunk to KGameCanvasRenderedPixmap::~KGameCanvasRenderedPixmap()@ABI_1_1" 4:4.11.1
 (c++)"non-virtual thunk to KGameCanvasWidget::canvasPosition() const@ABI_1_1" 4:4.11.1
 (c++)"non-virtual thunk to KGameCanvasWidget::ensureAnimating()@ABI_1_1" 4:4.11.1
 (c++)"non-virtual thunk to KGameCanvasWidget::ensurePendingUpdate()@ABI_1_1" 4:4.11.1
 (c++)"non-virtual thunk to KGameCanvasWidget::invalidate(QRect const&, bool)@ABI_1_1" 4:4.11.1
 (c++)"non-virtual thunk to KGameCanvasWidget::invalidate(QRegion const&, bool)@ABI_1_1" 4:4.11.1
 (c++)"non-virtual thunk to KGameCanvasWidget::topLevelCanvas()@ABI_1_1" 4:4.11.1
 (c++)"non-virtual thunk to KGameCanvasWidget::~KGameCanvasWidget()@ABI_1_1" 4:4.11.1
 (c++)"non-virtual thunk to KGameChat::~KGameChat()@ABI_1_1" 4:4.11.1
 (c++)"non-virtual thunk to KGameThemeSelector::~KGameThemeSelector()@ABI_1_1" 4:4.11.1
